; Function Attrs: mustprogress uwtable
define void @_ZN2cv6ccalib13CustomPatternC2Ev(ptr noundef nonnull align 8 dereferenceable(336) %0) unnamed_addr #3 align 2 {
  tail call void @_ZN2cv9AlgorithmC2Ev(ptr noundef nonnull align 8 dereferenceable(8) %0)
  store ptr getelementptr inbounds nuw inrange(-16, 64) (i8, ptr @_ZTVN2cv6ccalib13CustomPatternE, i64 16), ptr %0, align 8, !tbaa !3
  %2 = getelementptr inbounds nuw i8, ptr %0, i64 8
  tail call void @_ZN2cv3MatC1Ev(ptr noundef nonnull align 8 dereferenceable(96) %2) #24
  %3 = getelementptr inbounds nuw i8, ptr %0, i64 104
  tail call void @llvm.memset.p0.i64(ptr noundef nonnull align 8 dereferenceable(24) %3, i8 0, i64 24, i1 false)
  %4 = getelementptr inbounds nuw i8, ptr %0, i64 144
  %5 = getelementptr inbounds nuw i8, ptr %0, i64 240
  tail call void @llvm.memset.p0.i64(ptr noundef nonnull align 8 dereferenceable(96) %4, i8 0, i64 96, i1 false)
  tail call void @_ZN2cv3MatC1Ev(ptr noundef nonnull align 8 dereferenceable(96) %5) #24
  %6 = getelementptr inbounds nuw i8, ptr %0, i64 136
  store i8 0, ptr %6, align 8, !tbaa !6
  ret void
}